; Function Attrs: null_pointer_is_valid sspstrong uwtable
define internal i32 @dissect_x25(ptr noundef %0, ptr noundef %1, ptr noundef %2, ptr readnone captures(none) %3) #0 {
  %5 = getelementptr inbounds nuw i8, ptr %1, i64 208
  %6 = getelementptr inbounds nuw i8, ptr %1, i64 232
  %7 = load i32, ptr %5, align 8
  %8 = load i32, ptr %6, align 8
  %9 = icmp sgt i32 %7, %8
  br i1 %9, label %cmp_address.exit.thread, label %10

10:                                               ; preds = %4
  %11 = icmp slt i32 %7, %8
  br i1 %11, label %cmp_address.exit.thread, label %12

12:                                               ; preds = %10
  %13 = getelementptr inbounds nuw i8, ptr %1, i64 212
  %14 = load i32, ptr %13, align 4
  %15 = getelementptr inbounds nuw i8, ptr %1, i64 236
  %16 = load i32, ptr %15, align 4
  %17 = icmp sgt i32 %14, %16
  br i1 %17, label %cmp_address.exit.thread, label %18

18:                                               ; preds = %12
  %19 = icmp slt i32 %14, %16
  br i1 %19, label %cmp_address.exit.thread, label %20

20:                                               ; preds = %18
  %21 = icmp eq i32 %14, 0
  br i1 %21, label %cmp_address.exit.thread11, label %cmp_address.exit

cmp_address.exit:                                 ; preds = %20
  %22 = getelementptr inbounds nuw i8, ptr %1, i64 216
  %23 = load ptr, ptr %22, align 8
  %24 = getelementptr inbounds nuw i8, ptr %1, i64 240
  %25 = load ptr, ptr %24, align 8
  %26 = sext i32 %14 to i64
  %27 = tail call i32 @memcmp(ptr noundef %23, ptr noundef %25, i64 noundef %26) #6
  %28 = icmp eq i32 %27, 0
  br i1 %28, label %cmp_address.exit.thread11, label %cmp_address.exit.thread

cmp_address.exit.thread11:                        ; preds = %20, %cmp_address.exit
  %29 = getelementptr inbounds nuw i8, ptr %1, i64 284
  %30 = load i32, ptr %29, align 4
  %31 = getelementptr inbounds nuw i8, ptr %1, i64 288
  %32 = load i32, ptr %31, align 8
  %33 = icmp ugt i32 %30, %32
  %34 = select i1 %33, i32 1, i32 -1
  br label %cmp_address.exit.thread

cmp_address.exit.thread:                          ; preds = %18, %12, %10, %4, %cmp_address.exit.thread11, %cmp_address.exit
  %.0 = phi i32 [ %34, %cmp_address.exit.thread11 ], [ %27, %cmp_address.exit ], [ -1, %18 ], [ 1, %12 ], [ -1, %10 ], [ 1, %4 ]
  %35 = icmp sgt i32 %.0, 0
  tail call fastcc void @dissect_x25_common(ptr noundef %0, ptr noundef %1, ptr noundef %2, i32 noundef 2, i1 noundef zeroext %35)
  %36 = tail call i32 @tvb_captured_length(ptr noundef %0)
  ret i32 %36
}